target datalayout = "e-m:e-p270:32:32-p271:32:32-p272:64:64-i64:64-i128:128-f80:128-n8:16:32:64-S128"
target triple = "x86_64-pc-linux-gnu"

%"class.icu_77::Locale" = type <{ %"class.icu_77::UObject", [12 x i8], [6 x i8], [4 x i8], [2 x i8], i32, [4 x i8], ptr, [157 x i8], [3 x i8], ptr, i8, [7 x i8] }>
%"class.icu_77::UObject" = type { ptr }
%"class.icu_77::UnicodeString" = type { %"class.icu_77::Replaceable", %"union.icu_77::UnicodeString::StackBufferOrFields" }
%"class.icu_77::Replaceable" = type { %"class.icu_77::UObject" }
%"union.icu_77::UnicodeString::StackBufferOrFields" = type { %struct.anon.0, [32 x i8] }
%struct.anon.0 = type { i16, i32, i32, ptr }
%struct.anon = type { i16, [27 x i16] }

@_ZTVN6icu_777UObjectE = available_externally unnamed_addr constant { [5 x ptr] } { [5 x ptr] [ptr null, ptr @_ZTIN6icu_777UObjectE, ptr @_ZN6icu_777UObjectD1Ev, ptr @_ZN6icu_777UObjectD0Ev, ptr @_ZNK6icu_777UObject17getDynamicClassIDEv] }, align 8

; Function Attrs: inlinehint mustprogress nounwind uwtable
define linkonce_odr void @_ZN6icu_777UObjectC2Ev(ptr noundef nonnull align 8 dereferenceable(8) %0) unnamed_addr #2 comdat align 2 {
  %2 = alloca ptr, align 8
  store ptr %0, ptr %2, align 8, !tbaa !32
  %3 = load ptr, ptr %2, align 8
  store ptr getelementptr inbounds inrange(-16, 24) ({ [5 x ptr] }, ptr @_ZTVN6icu_777UObjectE, i32 0, i32 0, i32 2), ptr %3, align 8, !tbaa !25
  ret void
}

; Function Attrs: inlinehint mustprogress nounwind uwtable
define linkonce_odr void @_ZN6icu_7711ReplaceableC2Ev(ptr noundef nonnull align 8 dereferenceable(8) %0) unnamed_addr #2 comdat align 2 {
  %2 = alloca ptr, align 8
  store ptr %0, ptr %2, align 8, !tbaa !58
  %3 = load ptr, ptr %2, align 8
  call void @_ZN6icu_777UObjectC2Ev(ptr noundef nonnull align 8 dereferenceable(8) %3) #11
  store ptr getelementptr inbounds inrange(-16, 88) ({ [13 x ptr] }, ptr @_ZTVN6icu_7711ReplaceableE, i32 0, i32 0, i32 2), ptr %3, align 8, !tbaa !25
  ret void
}

; Function Attrs: inlinehint mustprogress uwtable
define linkonce_odr void @_ZN6icu_7713UnicodeStringC2Ev(ptr noundef nonnull align 8 dereferenceable(64) %0) unnamed_addr #3 comdat align 2 {
  %2 = alloca ptr, align 8
  store ptr %0, ptr %2, align 8, !tbaa !27
  %3 = load ptr, ptr %2, align 8
  call void @_ZN6icu_7711ReplaceableC2Ev(ptr noundef nonnull align 8 dereferenceable(8) %3)
  store ptr getelementptr inbounds inrange(-16, 88) ({ [13 x ptr] }, ptr @_ZTVN6icu_7713UnicodeStringE, i32 0, i32 0, i32 2), ptr %3, align 8, !tbaa !25
  %4 = getelementptr inbounds nuw %"class.icu_77::UnicodeString", ptr %3, i32 0, i32 1
  %5 = getelementptr inbounds nuw %struct.anon, ptr %4, i32 0, i32 0
  store i16 2, ptr %5, align 8, !tbaa !29
  ret void
}

; Function Attrs: inlinehint mustprogress nounwind uwtable
define linkonce_odr noundef signext i8 @_ZNK6icu_7713UnicodeString7isBogusEv(ptr noundef nonnull align 8 dereferenceable(64) %0) #2 comdat align 2 {
  %2 = alloca ptr, align 8
  store ptr %0, ptr %2, align 8, !tbaa !27
  %3 = load ptr, ptr %2, align 8
  %4 = getelementptr inbounds nuw %"class.icu_77::UnicodeString", ptr %3, i32 0, i32 1
  %5 = getelementptr inbounds nuw %struct.anon.0, ptr %4, i32 0, i32 0
  %6 = load i16, ptr %5, align 8, !tbaa !29
  %7 = sext i16 %6 to i32
  %8 = and i32 %7, 1
  %9 = trunc i32 %8 to i8
  ret i8 %9
}

; Function Attrs: inlinehint mustprogress nounwind uwtable
define linkonce_odr noundef ptr @_ZNK6icu_776Locale7getNameEv(ptr noundef nonnull align 8 dereferenceable(217) %0) #2 comdat align 2 {
  %2 = alloca ptr, align 8
  store ptr %0, ptr %2, align 8, !tbaa !30
  %3 = load ptr, ptr %2, align 8
  %4 = getelementptr inbounds nuw %"class.icu_77::Locale", ptr %3, i32 0, i32 7
  %5 = load ptr, ptr %4, align 8, !tbaa !36
  ret ptr %5
}

; Function Attrs: inlinehint mustprogress nounwind uwtable
define internal noundef signext i8 @_ZL9U_FAILURE10UErrorCode(i32 noundef %0) #2 {
  %2 = alloca i32, align 4
  store i32 %0, ptr %2, align 4, !tbaa !15
  %3 = load i32, ptr %2, align 4, !tbaa !15
  %4 = icmp sgt i32 %3, 0
  %5 = zext i1 %4 to i8
  ret i8 %5
}

; Function Attrs: mustprogress uwtable
define noundef ptr @_ZNK6icu_7716ICULocaleService3getERKNS_6LocaleEiPS1_R10UErrorCode(ptr noundef nonnull align 8 dereferenceable(408) %0, ptr noundef nonnull align 8 dereferenceable(217) %1, i32 noundef %2, ptr noundef %3, ptr noundef nonnull align 4 dereferenceable(4) %4) #1 align 2 personality ptr @__gxx_personality_v0 {
  %6 = alloca ptr, align 8
  %7 = alloca ptr, align 8
  %8 = alloca ptr, align 8
  %9 = alloca i32, align 4
  %10 = alloca ptr, align 8
  %11 = alloca ptr, align 8
  %12 = alloca ptr, align 8
  %13 = alloca i32, align 4
  %14 = alloca %"class.icu_77::UnicodeString", align 8
  %15 = alloca ptr, align 8
  %16 = alloca i32, align 4
  %17 = alloca ptr, align 8
  %18 = alloca %"class.icu_77::UnicodeString", align 8
  store ptr %0, ptr %7, align 8, !tbaa !23
  store ptr %1, ptr %8, align 8, !tbaa !30
  store i32 %2, ptr %9, align 4, !tbaa !14
  store ptr %3, ptr %10, align 8, !tbaa !30
  store ptr %4, ptr %11, align 8, !tbaa !22
  %19 = load ptr, ptr %7, align 8
  call void @llvm.lifetime.start.p0(i64 8, ptr %12) #11
  store ptr null, ptr %12, align 8, !tbaa !32
  %20 = load ptr, ptr %11, align 8, !tbaa !22
  %21 = load i32, ptr %20, align 4, !tbaa !15
  %22 = call noundef signext i8 @_ZL9U_FAILURE10UErrorCode(i32 noundef %21)
  %23 = icmp ne i8 %22, 0
  br i1 %23, label %24, label %26

24:                                               ; preds = %5
  %25 = load ptr, ptr %12, align 8, !tbaa !32
  store ptr %25, ptr %6, align 8
  store i32 1, ptr %13, align 4
  br label %100

26:                                               ; preds = %5
  call void @llvm.lifetime.start.p0(i64 64, ptr %14) #11
  %27 = load ptr, ptr %8, align 8, !tbaa !30
  %28 = call noundef ptr @_ZNK6icu_776Locale7getNameEv(ptr noundef nonnull align 8 dereferenceable(217) %27)
  call void @_ZN6icu_7713UnicodeStringC1EPKciNS0_10EInvariantE(ptr noundef nonnull align 8 dereferenceable(64) %14, ptr noundef %28, i32 noundef -1, i32 noundef 0)
  %29 = invoke noundef signext i8 @_ZNK6icu_7713UnicodeString7isBogusEv(ptr noundef nonnull align 8 dereferenceable(64) %14)
          to label %30 unwind label %34

30:                                               ; preds = %26
  %31 = icmp ne i8 %29, 0
  br i1 %31, label %32, label %38

32:                                               ; preds = %30
  %33 = load ptr, ptr %11, align 8, !tbaa !22
  store i32 7, ptr %33, align 4, !tbaa !15
  br label %97

34:                                               ; preds = %26
  %35 = landingpad { ptr, i32 }
          cleanup
  %36 = extractvalue { ptr, i32 } %35, 0
  store ptr %36, ptr %15, align 8
  %37 = extractvalue { ptr, i32 } %35, 1
  store i32 %37, ptr %16, align 4
  br label %99

38:                                               ; preds = %30
  call void @llvm.lifetime.start.p0(i64 8, ptr %17) #11
  %39 = load i32, ptr %9, align 4, !tbaa !14
  %40 = load ptr, ptr %11, align 8, !tbaa !22
  %41 = load ptr, ptr %19, align 8, !tbaa !25
  %42 = getelementptr inbounds ptr, ptr %41, i64 23
  %43 = load ptr, ptr %42, align 8
  %44 = invoke noundef ptr %43(ptr noundef nonnull align 8 dereferenceable(408) %19, ptr noundef %14, i32 noundef %39, ptr noundef nonnull align 4 dereferenceable(4) %40)
          to label %45 unwind label %56

45:                                               ; preds = %38
  store ptr %44, ptr %17, align 8, !tbaa !34
  %46 = load ptr, ptr %17, align 8, !tbaa !34
  %47 = icmp ne ptr %46, null
  br i1 %47, label %48, label %95

48:                                               ; preds = %45
  %49 = load ptr, ptr %10, align 8, !tbaa !30
  %50 = icmp eq ptr %49, null
  br i1 %50, label %51, label %60

51:                                               ; preds = %48
  %52 = load ptr, ptr %17, align 8, !tbaa !34
  %53 = load ptr, ptr %11, align 8, !tbaa !22
  %54 = invoke noundef ptr @_ZNK6icu_7710ICUService6getKeyERNS_13ICUServiceKeyER10UErrorCode(ptr noundef nonnull align 8 dereferenceable(120) %19, ptr noundef nonnull align 8 dereferenceable(72) %52, ptr noundef nonnull align 4 dereferenceable(4) %53)
          to label %55 unwind label %56

55:                                               ; preds = %51
  store ptr %54, ptr %12, align 8, !tbaa !32
  br label %87

56:                                               ; preds = %51, %38
  %57 = landingpad { ptr, i32 }
          cleanup
  %58 = extractvalue { ptr, i32 } %57, 0
  store ptr %58, ptr %15, align 8
  %59 = extractvalue { ptr, i32 } %57, 1
  store i32 %59, ptr %16, align 4
  br label %96

60:                                               ; preds = %48
  call void @llvm.lifetime.start.p0(i64 64, ptr %18) #11
  invoke void @_ZN6icu_7713UnicodeStringC2Ev(ptr noundef nonnull align 8 dereferenceable(64) %18)
          to label %61 unwind label %77

61:                                               ; preds = %60
  %62 = load ptr, ptr %17, align 8, !tbaa !34
  %63 = load ptr, ptr %11, align 8, !tbaa !22
  %64 = load ptr, ptr %19, align 8, !tbaa !25
  %65 = getelementptr inbounds ptr, ptr %64, i64 7
  %66 = load ptr, ptr %65, align 8
  %67 = invoke noundef ptr %66(ptr noundef nonnull align 8 dereferenceable(120) %19, ptr noundef nonnull align 8 dereferenceable(72) %62, ptr noundef %18, ptr noundef nonnull align 4 dereferenceable(4) %63)
          to label %68 unwind label %81

68:                                               ; preds = %61
  store ptr %67, ptr %12, align 8, !tbaa !32
  %69 = load ptr, ptr %12, align 8, !tbaa !32
  %70 = icmp ne ptr %69, null
  br i1 %70, label %71, label %85

71:                                               ; preds = %68
  %72 = invoke noundef nonnull align 8 dereferenceable(64) ptr @_ZN6icu_7713ICUServiceKey11parseSuffixERNS_13UnicodeStringE(ptr noundef nonnull align 8 dereferenceable(64) %18)
          to label %73 unwind label %81

73:                                               ; preds = %71
  %74 = load ptr, ptr %10, align 8, !tbaa !30
  %75 = invoke noundef nonnull align 8 dereferenceable(217) ptr @_ZN6icu_7713LocaleUtility18initLocaleFromNameERKNS_13UnicodeStringERNS_6LocaleE(ptr noundef nonnull align 8 dereferenceable(64) %18, ptr noundef nonnull align 8 dereferenceable(217) %74)
          to label %76 unwind label %81

76:                                               ; preds = %73
  br label %85

77:                                               ; preds = %60
  %78 = landingpad { ptr, i32 }
          cleanup
  %79 = extractvalue { ptr, i32 } %78, 0
  store ptr %79, ptr %15, align 8
  %80 = extractvalue { ptr, i32 } %78, 1
  store i32 %80, ptr %16, align 4
  br label %86

81:                                               ; preds = %73, %71, %61
  %82 = landingpad { ptr, i32 }
          cleanup
  %83 = extractvalue { ptr, i32 } %82, 0
  store ptr %83, ptr %15, align 8
  %84 = extractvalue { ptr, i32 } %82, 1
  store i32 %84, ptr %16, align 4
  call void @_ZN6icu_7713UnicodeStringD1Ev(ptr noundef nonnull align 8 dereferenceable(64) %18) #11
  br label %86

85:                                               ; preds = %76, %68
  call void @_ZN6icu_7713UnicodeStringD1Ev(ptr noundef nonnull align 8 dereferenceable(64) %18) #11
  call void @llvm.lifetime.end.p0(i64 64, ptr %18) #11
  br label %87

86:                                               ; preds = %81, %77
  call void @llvm.lifetime.end.p0(i64 64, ptr %18) #11
  br label %96

87:                                               ; preds = %85, %55
  %88 = load ptr, ptr %17, align 8, !tbaa !34
  %89 = icmp eq ptr %88, null
  br i1 %89, label %94, label %90

90:                                               ; preds = %87
  %91 = load ptr, ptr %88, align 8, !tbaa !25
  %92 = getelementptr inbounds ptr, ptr %91, i64 1
  %93 = load ptr, ptr %92, align 8
  call void %93(ptr noundef nonnull align 8 dereferenceable(72) %88) #11
  br label %94

94:                                               ; preds = %90, %87
  br label %95

95:                                               ; preds = %94, %45
  call void @llvm.lifetime.end.p0(i64 8, ptr %17) #11
  br label %97

96:                                               ; preds = %86, %56
  call void @llvm.lifetime.end.p0(i64 8, ptr %17) #11
  br label %99

97:                                               ; preds = %95, %32
  %98 = load ptr, ptr %12, align 8, !tbaa !32
  store ptr %98, ptr %6, align 8
  store i32 1, ptr %13, align 4
  call void @_ZN6icu_7713UnicodeStringD1Ev(ptr noundef nonnull align 8 dereferenceable(64) %14) #11
  call void @llvm.lifetime.end.p0(i64 64, ptr %14) #11
  br label %100

99:                                               ; preds = %96, %34
  call void @_ZN6icu_7713UnicodeStringD1Ev(ptr noundef nonnull align 8 dereferenceable(64) %14) #11
  call void @llvm.lifetime.end.p0(i64 64, ptr %14) #11
  call void @llvm.lifetime.end.p0(i64 8, ptr %12) #11
  br label %102

100:                                              ; preds = %97, %24
  call void @llvm.lifetime.end.p0(i64 8, ptr %12) #11
  %101 = load ptr, ptr %6, align 8
  ret ptr %101

102:                                              ; preds = %99
  %103 = load ptr, ptr %15, align 8
  %104 = load i32, ptr %16, align 4
  %105 = insertvalue { ptr, i32 } poison, ptr %103, 0
  %106 = insertvalue { ptr, i32 } %105, i32 %104, 1
  resume { ptr, i32 } %106
}