; Function Attrs: mustprogress uwtable
define noundef ptr @_ZNK6icu_7716ICULocaleService3getERKNS_6LocaleEiPS1_R10UErrorCode(ptr noundef nonnull align 8 dereferenceable(408) %0, ptr noundef nonnull readonly align 8 captures(none) dereferenceable(217) %1, i32 noundef %2, ptr noundef %3, ptr noundef nonnull align 4 dereferenceable(4) %4) local_unnamed_addr #1 align 2 personality ptr @__gxx_personality_v0 {
  %6 = alloca %"class.icu_77::UnicodeString", align 8
  %7 = alloca %"class.icu_77::UnicodeString", align 8
  %8 = load i32, ptr %4, align 4, !tbaa !13
  %9 = icmp slt i32 %8, 1
  br i1 %9, label %10, label %49

10:                                               ; preds = %5
  call void @llvm.lifetime.start.p0(i64 64, ptr nonnull %6) #15
  %11 = getelementptr inbounds nuw i8, ptr %1, i64 40
  %12 = load ptr, ptr %11, align 8, !tbaa !18
  call void @_ZN6icu_7713UnicodeStringC1EPKciNS0_10EInvariantE(ptr noundef nonnull align 8 dereferenceable(64) %6, ptr noundef %12, i32 noundef -1, i32 noundef 0)
  %13 = getelementptr inbounds nuw i8, ptr %6, i64 8
  %14 = load i16, ptr %13, align 8, !tbaa !17
  %15 = and i16 %14, 1
  %.not26 = icmp eq i16 %15, 0
  br i1 %.not26, label %17, label %16

16:                                               ; preds = %10
  store i32 7, ptr %4, align 4, !tbaa !13
  br label %48

17:                                               ; preds = %10
  %18 = load ptr, ptr %0, align 8, !tbaa !15
  %19 = getelementptr inbounds nuw i8, ptr %18, i64 184
  %20 = load ptr, ptr %19, align 8
  %21 = invoke noundef ptr %20(ptr noundef nonnull align 8 dereferenceable(408) %0, ptr noundef nonnull %6, i32 noundef %2, ptr noundef nonnull align 4 dereferenceable(4) %4)
          to label %22 unwind label %27

22:                                               ; preds = %17
  %.not27 = icmp eq ptr %21, null
  br i1 %.not27, label %48, label %23

23:                                               ; preds = %22
  %24 = icmp eq ptr %3, null
  br i1 %24, label %25, label %29

25:                                               ; preds = %23
  %26 = invoke noundef ptr @_ZNK6icu_7710ICUService6getKeyERNS_13ICUServiceKeyER10UErrorCode(ptr noundef nonnull align 8 dereferenceable(120) %0, ptr noundef nonnull align 8 dereferenceable(72) %21, ptr noundef nonnull align 4 dereferenceable(4) %4)
          to label %43 unwind label %27

27:                                               ; preds = %25, %17
  %28 = landingpad { ptr, i32 }
          cleanup
  br label %47

29:                                               ; preds = %23
  call void @llvm.lifetime.start.p0(i64 64, ptr nonnull %7) #15
  store ptr getelementptr inbounds nuw inrange(-16, 88) (i8, ptr @_ZTVN6icu_7713UnicodeStringE, i64 16), ptr %7, align 8, !tbaa !15
  %30 = getelementptr inbounds nuw i8, ptr %7, i64 8
  store i16 2, ptr %30, align 8, !tbaa !17
  %31 = load ptr, ptr %0, align 8, !tbaa !15
  %32 = getelementptr inbounds nuw i8, ptr %31, i64 56
  %33 = load ptr, ptr %32, align 8
  %34 = invoke noundef ptr %33(ptr noundef nonnull align 8 dereferenceable(120) %0, ptr noundef nonnull align 8 dereferenceable(72) %21, ptr noundef nonnull %7, ptr noundef nonnull align 4 dereferenceable(4) %4)
          to label %35 unwind label %40

35:                                               ; preds = %29
  %.not28 = icmp eq ptr %34, null
  br i1 %.not28, label %42, label %36

36:                                               ; preds = %35
  %37 = invoke noundef nonnull align 8 dereferenceable(64) ptr @_ZN6icu_7713ICUServiceKey11parseSuffixERNS_13UnicodeStringE(ptr noundef nonnull align 8 dereferenceable(64) %7)
          to label %38 unwind label %40

38:                                               ; preds = %36
  %39 = invoke noundef nonnull align 8 dereferenceable(217) ptr @_ZN6icu_7713LocaleUtility18initLocaleFromNameERKNS_13UnicodeStringERNS_6LocaleE(ptr noundef nonnull align 8 dereferenceable(64) %7, ptr noundef nonnull align 8 dereferenceable(217) %3)
          to label %42 unwind label %40

40:                                               ; preds = %38, %36, %29
  %41 = landingpad { ptr, i32 }
          cleanup
  call void @_ZN6icu_7713UnicodeStringD1Ev(ptr noundef nonnull align 8 dereferenceable(64) %7) #15
  call void @llvm.lifetime.end.p0(i64 64, ptr nonnull %7) #15
  br label %47

42:                                               ; preds = %38, %35
  call void @_ZN6icu_7713UnicodeStringD1Ev(ptr noundef nonnull align 8 dereferenceable(64) %7) #15
  call void @llvm.lifetime.end.p0(i64 64, ptr nonnull %7) #15
  br label %43

43:                                               ; preds = %42, %25
  %.2 = phi ptr [ %34, %42 ], [ %26, %25 ]
  %44 = load ptr, ptr %21, align 8, !tbaa !15
  %45 = getelementptr inbounds nuw i8, ptr %44, i64 8
  %46 = load ptr, ptr %45, align 8
  call void %46(ptr noundef nonnull align 8 dereferenceable(72) %21) #15
  br label %48

47:                                               ; preds = %40, %27
  %.pn30 = phi { ptr, i32 } [ %28, %27 ], [ %41, %40 ]
  call void @_ZN6icu_7713UnicodeStringD1Ev(ptr noundef nonnull align 8 dereferenceable(64) %6) #15
  call void @llvm.lifetime.end.p0(i64 64, ptr nonnull %6) #15
  resume { ptr, i32 } %.pn30

48:                                               ; preds = %22, %43, %16
  %.022 = phi ptr [ null, %16 ], [ %.2, %43 ], [ null, %22 ]
  call void @_ZN6icu_7713UnicodeStringD1Ev(ptr noundef nonnull align 8 dereferenceable(64) %6) #15
  call void @llvm.lifetime.end.p0(i64 64, ptr nonnull %6) #15
  br label %49

49:                                               ; preds = %5, %48
  %.0 = phi ptr [ %.022, %48 ], [ null, %5 ]
  ret ptr %.0
}